target datalayout = "e-m:e-p270:32:32-p271:32:32-p272:64:64-i64:64-i128:128-f80:128-n8:16:32:64-S128"
target triple = "x86_64-pc-linux-gnu"

%struct.yyguts_t = type { ptr, ptr, ptr, i64, i64, ptr, i8, i64, i64, ptr, i32, i32, i32, i32, i32, ptr, i32, ptr, i32, i32, ptr, i32, i32 }

@_ZL7yy_meta = internal constant [33 x i8] c"\00\01\01\02\01\01\01\01\01\03\04\01\01\01\04\04\01\04\04\04\04\04\04\04\04\04\04\04\04\04\04\04\01", align 16

; Function Attrs: mustprogress nounwind uwtable
define internal noundef i32 @_ZL21yy_get_previous_statePv(ptr noundef %0) #1 {
  %2 = alloca ptr, align 8
  %3 = alloca i32, align 4
  %4 = alloca ptr, align 8
  %5 = alloca ptr, align 8
  %6 = alloca i8, align 1
  store ptr %0, ptr %2, align 8
  %7 = load ptr, ptr %2, align 8
  store ptr %7, ptr %5, align 8
  %8 = load ptr, ptr %5, align 8
  %9 = getelementptr inbounds %struct.yyguts_t, ptr %8, i32 0, i32 11
  %10 = load i32, ptr %9, align 4
  store i32 %10, ptr %3, align 4
  %11 = load ptr, ptr %5, align 8
  %12 = getelementptr inbounds %struct.yyguts_t, ptr %11, i32 0, i32 20
  %13 = load ptr, ptr %12, align 8
  %14 = getelementptr inbounds i8, ptr %13, i64 0
  store ptr %14, ptr %4, align 8
  br label %15

15:                                               ; preds = %93, %1
  %16 = load ptr, ptr %4, align 8
  %17 = load ptr, ptr %5, align 8
  %18 = getelementptr inbounds %struct.yyguts_t, ptr %17, i32 0, i32 9
  %19 = load ptr, ptr %18, align 8
  %20 = icmp ult ptr %16, %19
  br i1 %20, label %21, label %96

21:                                               ; preds = %15
  %22 = load ptr, ptr %4, align 8
  %23 = load i8, ptr %22, align 1
  %24 = icmp ne i8 %23, 0
  br i1 %24, label %25, label %33

25:                                               ; preds = %21
  %26 = load ptr, ptr %4, align 8
  %27 = load i8, ptr %26, align 1
  %28 = zext i8 %27 to i32
  %29 = zext i32 %28 to i64
  %30 = getelementptr inbounds [256 x i8], ptr @_ZL5yy_ec, i64 0, i64 %29
  %31 = load i8, ptr %30, align 1
  %32 = zext i8 %31 to i32
  br label %34

33:                                               ; preds = %21
  br label %34

34:                                               ; preds = %33, %25
  %35 = phi i32 [ %32, %25 ], [ 1, %33 ]
  %36 = trunc i32 %35 to i8
  store i8 %36, ptr %6, align 1
  %37 = load i32, ptr %3, align 4
  %38 = sext i32 %37 to i64
  %39 = getelementptr inbounds [76 x i16], ptr @_ZL9yy_accept, i64 0, i64 %38
  %40 = load i16, ptr %39, align 2
  %41 = icmp ne i16 %40, 0
  br i1 %41, label %42, label %49

42:                                               ; preds = %34
  %43 = load i32, ptr %3, align 4
  %44 = load ptr, ptr %5, align 8
  %45 = getelementptr inbounds %struct.yyguts_t, ptr %44, i32 0, i32 16
  store i32 %43, ptr %45, align 8
  %46 = load ptr, ptr %4, align 8
  %47 = load ptr, ptr %5, align 8
  %48 = getelementptr inbounds %struct.yyguts_t, ptr %47, i32 0, i32 17
  store ptr %46, ptr %48, align 8
  br label %49

49:                                               ; preds = %42, %34
  br label %50

50:                                               ; preds = %79, %49
  %51 = load i32, ptr %3, align 4
  %52 = sext i32 %51 to i64
  %53 = getelementptr inbounds [80 x i16], ptr @_ZL7yy_base, i64 0, i64 %52
  %54 = load i16, ptr %53, align 2
  %55 = zext i16 %54 to i32
  %56 = load i8, ptr %6, align 1
  %57 = zext i8 %56 to i32
  %58 = add nsw i32 %55, %57
  %59 = sext i32 %58 to i64
  %60 = getelementptr inbounds [151 x i16], ptr @_ZL6yy_chk, i64 0, i64 %59
  %61 = load i16, ptr %60, align 2
  %62 = sext i16 %61 to i32
  %63 = load i32, ptr %3, align 4
  %64 = icmp ne i32 %62, %63
  br i1 %64, label %65, label %80

65:                                               ; preds = %50
  %66 = load i32, ptr %3, align 4
  %67 = sext i32 %66 to i64
  %68 = getelementptr inbounds [80 x i16], ptr @_ZL6yy_def, i64 0, i64 %67
  %69 = load i16, ptr %68, align 2
  %70 = sext i16 %69 to i32
  store i32 %70, ptr %3, align 4
  %71 = load i32, ptr %3, align 4
  %72 = icmp sge i32 %71, 76
  br i1 %72, label %73, label %79

73:                                               ; preds = %65
  %74 = load i8, ptr %6, align 1
  %75 = zext i8 %74 to i32
  %76 = zext i32 %75 to i64
  %77 = getelementptr inbounds [33 x i8], ptr @_ZL7yy_meta, i64 0, i64 %76
  %78 = load i8, ptr %77, align 1
  store i8 %78, ptr %6, align 1
  br label %79

79:                                               ; preds = %73, %65
  br label %50, !llvm.loop !8

80:                                               ; preds = %50
  %81 = load i32, ptr %3, align 4
  %82 = sext i32 %81 to i64
  %83 = getelementptr inbounds [80 x i16], ptr @_ZL7yy_base, i64 0, i64 %82
  %84 = load i16, ptr %83, align 2
  %85 = zext i16 %84 to i32
  %86 = load i8, ptr %6, align 1
  %87 = zext i8 %86 to i32
  %88 = add i32 %85, %87
  %89 = zext i32 %88 to i64
  %90 = getelementptr inbounds [151 x i16], ptr @_ZL6yy_nxt, i64 0, i64 %89
  %91 = load i16, ptr %90, align 2
  %92 = zext i16 %91 to i32
  store i32 %92, ptr %3, align 4
  br label %93

93:                                               ; preds = %80
  %94 = load ptr, ptr %4, align 8
  %95 = getelementptr inbounds i8, ptr %94, i32 1
  store ptr %95, ptr %4, align 8
  br label %15, !llvm.loop !9

96:                                               ; preds = %15
  %97 = load i32, ptr %3, align 4
  ret i32 %97
}