; Function Attrs: mustprogress nofree norecurse nosync nounwind memory(read, argmem: readwrite, inaccessiblemem: none) uwtable
define internal fastcc noundef i32 @_ZL21yy_get_previous_statePv(ptr nocapture noundef %0) unnamed_addr #7 {
  %2 = getelementptr inbounds i8, ptr %0, i64 84
  %3 = load i32, ptr %2, align 4
  %4 = getelementptr inbounds i8, ptr %0, i64 136
  %5 = load ptr, ptr %4, align 8
  %6 = getelementptr inbounds i8, ptr %0, i64 72
  %7 = load ptr, ptr %6, align 8
  %8 = icmp ult ptr %5, %7
  br i1 %8, label %.lr.ph32, label %._crit_edge33

.lr.ph32:                                         ; preds = %1
  %9 = getelementptr inbounds i8, ptr %0, i64 112
  %10 = getelementptr inbounds i8, ptr %0, i64 120
  br label %11

11:                                               ; preds = %.lr.ph32, %._crit_edge
  %.02130 = phi i32 [ %3, %.lr.ph32 ], [ %51, %._crit_edge ]
  %.02329 = phi ptr [ %5, %.lr.ph32 ], [ %52, %._crit_edge ]
  %12 = load i8, ptr %.02329, align 1
  %.not = icmp eq i8 %12, 0
  br i1 %.not, label %17, label %13

13:                                               ; preds = %11
  %14 = zext i8 %12 to i64
  %15 = getelementptr inbounds [256 x i8], ptr @_ZL5yy_ec, i64 0, i64 %14
  %16 = load i8, ptr %15, align 1
  br label %17

17:                                               ; preds = %11, %13
  %18 = phi i8 [ %16, %13 ], [ 1, %11 ]
  %19 = sext i32 %.02130 to i64
  %20 = getelementptr inbounds [76 x i16], ptr @_ZL9yy_accept, i64 0, i64 %19
  %21 = load i16, ptr %20, align 2
  %.not25 = icmp eq i16 %21, 0
  br i1 %.not25, label %23, label %22

22:                                               ; preds = %17
  store i32 %.02130, ptr %9, align 8
  store ptr %.02329, ptr %10, align 8
  br label %23

23:                                               ; preds = %22, %17
  %24 = getelementptr inbounds [80 x i16], ptr @_ZL7yy_base, i64 0, i64 %19
  %25 = load i16, ptr %24, align 2
  %26 = zext i16 %25 to i64
  %27 = zext i8 %18 to i64
  %28 = add nuw nsw i64 %26, %27
  %29 = getelementptr inbounds [151 x i16], ptr @_ZL6yy_chk, i64 0, i64 %28
  %30 = load i16, ptr %29, align 2
  %31 = sext i16 %30 to i32
  %.not2627 = icmp eq i32 %.02130, %31
  br i1 %.not2627, label %._crit_edge, label %.lr.ph

.lr.ph:                                           ; preds = %23, %40
  %32 = phi i64 [ %41, %40 ], [ %19, %23 ]
  %.028 = phi i8 [ %.1, %40 ], [ %18, %23 ]
  %33 = getelementptr inbounds [80 x i16], ptr @_ZL6yy_def, i64 0, i64 %32
  %34 = load i16, ptr %33, align 2
  %35 = icmp sgt i16 %34, 75
  br i1 %35, label %36, label %40

36:                                               ; preds = %.lr.ph
  %37 = zext i8 %.028 to i64
  %38 = getelementptr inbounds [33 x i8], ptr @_ZL7yy_meta, i64 0, i64 %37
  %39 = load i8, ptr %38, align 1
  br label %40

40:                                               ; preds = %36, %.lr.ph
  %.1 = phi i8 [ %39, %36 ], [ %.028, %.lr.ph ]
  %41 = sext i16 %34 to i64
  %42 = getelementptr inbounds [80 x i16], ptr @_ZL7yy_base, i64 0, i64 %41
  %43 = load i16, ptr %42, align 2
  %44 = zext i16 %43 to i64
  %45 = zext i8 %.1 to i64
  %46 = add nuw nsw i64 %44, %45
  %47 = getelementptr inbounds [151 x i16], ptr @_ZL6yy_chk, i64 0, i64 %46
  %48 = load i16, ptr %47, align 2
  %.not26 = icmp eq i16 %34, %48
  br i1 %.not26, label %._crit_edge, label %.lr.ph, !llvm.loop !13

._crit_edge:                                      ; preds = %40, %23
  %.lcssa = phi i64 [ %28, %23 ], [ %46, %40 ]
  %49 = getelementptr inbounds [151 x i16], ptr @_ZL6yy_nxt, i64 0, i64 %.lcssa
  %50 = load i16, ptr %49, align 2
  %51 = zext i16 %50 to i32
  %52 = getelementptr inbounds i8, ptr %.02329, i64 1
  %exitcond.not = icmp eq ptr %52, %7
  br i1 %exitcond.not, label %._crit_edge33, label %11, !llvm.loop !14

._crit_edge33:                                    ; preds = %._crit_edge, %1
  %.021.lcssa = phi i32 [ %3, %1 ], [ %51, %._crit_edge ]
  ret i32 %.021.lcssa
}